target datalayout = "e-m:e-p270:32:32-p271:32:32-p272:64:64-i64:64-i128:128-f80:128-n8:16:32:64-S128"
target triple = "x86_64-pc-linux-gnu"

%struct._value_string = type { i32, ptr }
%struct._kafka_api_info_t = type { i16, ptr, i16, i16, i16 }

@.str = private unnamed_addr constant [6 x i8] c"Kafka\00", align 1
@.str.1 = private unnamed_addr constant [6 x i8] c"kafka\00", align 1
@proto_kafka = internal global i32 0, align 4
@kafka_api_names = internal global [51 x %struct._value_string] zeroinitializer, align 16
@.str.620 = private unnamed_addr constant [26 x i8] c"show_string_bytes_lengths\00", align 1
@.str.621 = private unnamed_addr constant [61 x i8] c"Show length for string and bytes fields in the protocol tree\00", align 1
@.str.622 = private unnamed_addr constant [1 x i8] zeroinitializer, align 1
@kafka_show_string_bytes_lengths = internal global i8 0, align 1

; Function Attrs: null_pointer_is_valid sspstrong uwtable
define internal void @proto_register_kafka_preferences(i32 noundef %0) #0 {
  %2 = alloca i32, align 4
  %3 = alloca ptr, align 8
  store i32 %0, ptr %2, align 4
  call void @llvm.lifetime.start.p0(i64 8, ptr %3) #12
  %4 = load i32, ptr %2, align 4
  %5 = call ptr @prefs_register_protocol(i32 noundef %4, ptr noundef null)
  store ptr %5, ptr %3, align 8
  %6 = load ptr, ptr %3, align 8
  call void @prefs_register_bool_preference(ptr noundef %6, ptr noundef @.str.620, ptr noundef @.str.621, ptr noundef @.str.622, ptr noundef @kafka_show_string_bytes_lengths)
  call void @llvm.lifetime.end.p0(i64 8, ptr %3) #12
  ret void
}

; Function Attrs: null_pointer_is_valid sspstrong uwtable
define internal void @proto_register_kafka_expert_module(i32 noundef %0) #0 {
  %2 = alloca i32, align 4
  %3 = alloca ptr, align 8
  store i32 %0, ptr %2, align 4
  call void @llvm.lifetime.start.p0(i64 8, ptr %3) #12
  %4 = load i32, ptr %2, align 4
  %5 = call ptr @expert_register_protocol(i32 noundef %4)
  store ptr %5, ptr %3, align 8
  %6 = load ptr, ptr %3, align 8
  call void @expert_register_field_array(ptr noundef %6, ptr noundef @proto_register_kafka_expert_module.ei, i32 noundef 15)
  call void @llvm.lifetime.end.p0(i64 8, ptr %3) #12
  ret void
}

; Function Attrs: null_pointer_is_valid sspstrong uwtable
define internal void @proto_register_kafka_protocol_subtrees(i32 noundef %0) #0 {
  %2 = alloca i32, align 4
  store i32 %0, ptr %2, align 4
  call void @proto_register_subtree_array(ptr noundef @proto_register_kafka_protocol_subtrees.ett, i32 noundef 61)
  ret void
}

; Function Attrs: null_pointer_is_valid sspstrong uwtable
define internal void @proto_register_kafka_protocol_fields(i32 noundef %0) #0 {
  %2 = alloca i32, align 4
  store i32 %0, ptr %2, align 4
  %3 = load i32, ptr %2, align 4
  call void @proto_register_field_array(i32 noundef %3, ptr noundef @proto_register_kafka_protocol_fields.hf, i32 noundef 174)
  ret void
}

; Function Attrs: nounwind null_pointer_is_valid sspstrong uwtable
define internal void @compute_kafka_api_names() #2 {
  %1 = alloca i32, align 4
  %2 = alloca i32, align 4
  call void @llvm.lifetime.start.p0(i64 4, ptr %1) #12
  call void @llvm.lifetime.start.p0(i64 4, ptr %2) #12
  store i32 50, ptr %2, align 4
  store i32 0, ptr %1, align 4
  br label %3

3:                                                ; preds = %27, %0
  %4 = load i32, ptr %1, align 4
  %5 = load i32, ptr %2, align 4
  %6 = icmp ult i32 %4, %5
  br i1 %6, label %7, label %30

7:                                                ; preds = %3
  %8 = load i32, ptr %1, align 4
  %9 = zext i32 %8 to i64
  %10 = getelementptr [50 x %struct._kafka_api_info_t], ptr @kafka_apis, i64 0, i64 %9
  %11 = getelementptr inbounds nuw %struct._kafka_api_info_t, ptr %10, i32 0, i32 0
  %12 = load i16, ptr %11, align 8
  %13 = sext i16 %12 to i32
  %14 = load i32, ptr %1, align 4
  %15 = zext i32 %14 to i64
  %16 = getelementptr [51 x %struct._value_string], ptr @kafka_api_names, i64 0, i64 %15
  %17 = getelementptr inbounds nuw %struct._value_string, ptr %16, i32 0, i32 0
  store i32 %13, ptr %17, align 16
  %18 = load i32, ptr %1, align 4
  %19 = zext i32 %18 to i64
  %20 = getelementptr [50 x %struct._kafka_api_info_t], ptr @kafka_apis, i64 0, i64 %19
  %21 = getelementptr inbounds nuw %struct._kafka_api_info_t, ptr %20, i32 0, i32 1
  %22 = load ptr, ptr %21, align 8
  %23 = load i32, ptr %1, align 4
  %24 = zext i32 %23 to i64
  %25 = getelementptr [51 x %struct._value_string], ptr @kafka_api_names, i64 0, i64 %24
  %26 = getelementptr inbounds nuw %struct._value_string, ptr %25, i32 0, i32 1
  store ptr %22, ptr %26, align 8
  br label %27

27:                                               ; preds = %7
  %28 = load i32, ptr %1, align 4
  %29 = add i32 %28, 1
  store i32 %29, ptr %1, align 4
  br label %3, !llvm.loop !6

30:                                               ; preds = %3
  %31 = load i32, ptr %2, align 4
  %32 = zext i32 %31 to i64
  %33 = getelementptr [51 x %struct._value_string], ptr @kafka_api_names, i64 0, i64 %32
  %34 = getelementptr inbounds nuw %struct._value_string, ptr %33, i32 0, i32 0
  store i32 0, ptr %34, align 16
  %35 = load i32, ptr %2, align 4
  %36 = zext i32 %35 to i64
  %37 = getelementptr [51 x %struct._value_string], ptr @kafka_api_names, i64 0, i64 %36
  %38 = getelementptr inbounds nuw %struct._value_string, ptr %37, i32 0, i32 1
  store ptr null, ptr %38, align 8
  call void @llvm.lifetime.end.p0(i64 4, ptr %2) #12
  call void @llvm.lifetime.end.p0(i64 4, ptr %1) #12
  ret void
}

; Function Attrs: null_pointer_is_valid sspstrong uwtable
define hidden void @proto_register_kafka() #0 {
  %1 = alloca i32, align 4
  call void @llvm.lifetime.start.p0(i64 4, ptr %1) #12
  call void @compute_kafka_api_names()
  %2 = call i32 @proto_register_protocol(ptr noundef @.str, ptr noundef @.str, ptr noundef @.str.1)
  store i32 %2, ptr %1, align 4
  %3 = load i32, ptr %1, align 4
  call void @proto_register_kafka_protocol_fields(i32 noundef %3)
  %4 = load i32, ptr %1, align 4
  call void @proto_register_kafka_protocol_subtrees(i32 noundef %4)
  %5 = load i32, ptr %1, align 4
  call void @proto_register_kafka_expert_module(i32 noundef %5)
  %6 = load i32, ptr %1, align 4
  call void @proto_register_kafka_preferences(i32 noundef %6)
  %7 = load i32, ptr %1, align 4
  store i32 %7, ptr @proto_kafka, align 4
  call void @llvm.lifetime.end.p0(i64 4, ptr %1) #12
  ret void
}