; Function Attrs: null_pointer_is_valid sspstrong uwtable
define hidden void @proto_register_kafka() local_unnamed_addr #0 {
  br label %1

1:                                                ; preds = %1, %0
  %indvars.iv.i = phi i64 [ 0, %0 ], [ %indvars.iv.next.i, %1 ]
  %2 = getelementptr [50 x %struct._kafka_api_info_t], ptr @kafka_apis, i64 0, i64 %indvars.iv.i
  %3 = load i16, ptr %2, align 8
  %4 = sext i16 %3 to i32
  %5 = getelementptr [51 x %struct._value_string], ptr @kafka_api_names, i64 0, i64 %indvars.iv.i
  store i32 %4, ptr %5, align 16
  %6 = getelementptr inbounds nuw i8, ptr %2, i64 8
  %7 = load ptr, ptr %6, align 8
  %8 = getelementptr inbounds nuw i8, ptr %5, i64 8
  store ptr %7, ptr %8, align 8
  %indvars.iv.next.i = add nuw nsw i64 %indvars.iv.i, 1
  %exitcond.not.i = icmp eq i64 %indvars.iv.next.i, 50
  br i1 %exitcond.not.i, label %compute_kafka_api_names.exit, label %1, !llvm.loop !6

compute_kafka_api_names.exit:                     ; preds = %1
  store i32 0, ptr getelementptr inbounds nuw (i8, ptr @kafka_api_names, i64 800), align 16
  store ptr null, ptr getelementptr inbounds nuw (i8, ptr @kafka_api_names, i64 808), align 8
  %9 = tail call i32 @proto_register_protocol(ptr noundef nonnull @.str, ptr noundef nonnull @.str, ptr noundef nonnull @.str.1)
  tail call void @proto_register_field_array(i32 noundef %9, ptr noundef nonnull @proto_register_kafka_protocol_fields.hf, i32 noundef 174)
  tail call void @proto_register_subtree_array(ptr noundef nonnull @proto_register_kafka_protocol_subtrees.ett, i32 noundef 61)
  %10 = tail call ptr @expert_register_protocol(i32 noundef %9)
  tail call void @expert_register_field_array(ptr noundef %10, ptr noundef nonnull @proto_register_kafka_expert_module.ei, i32 noundef 15)
  %11 = tail call ptr @prefs_register_protocol(i32 noundef %9, ptr noundef null)
  tail call void @prefs_register_bool_preference(ptr noundef %11, ptr noundef nonnull @.str.620, ptr noundef nonnull @.str.621, ptr noundef nonnull @.str.622, ptr noundef nonnull @kafka_show_string_bytes_lengths)
  store i32 %9, ptr @proto_kafka, align 4
  ret void
}